target datalayout = "e-m:e-p270:32:32-p271:32:32-p272:64:64-i64:64-i128:128-f80:128-n8:16:32:64-S128"
target triple = "x86_64-pc-linux-gnu"

%struct.quic_tserver_args_st = type { ptr, ptr, ptr, ptr, ptr, ptr, ptr, ptr, i64 }
%struct.quic_tserver_st = type { %struct.quic_tserver_args_st, ptr, ptr, ptr, ptr, ptr, ptr, ptr, i8 }

; Function Attrs: nounwind uwtable
define i32 @ossl_quic_tserver_ping(ptr noundef %0) #0 {
  %2 = alloca i32, align 4
  %3 = alloca ptr, align 8
  store ptr %0, ptr %3, align 8, !tbaa !10
  %4 = load ptr, ptr %3, align 8, !tbaa !10
  %5 = getelementptr inbounds nuw %struct.quic_tserver_st, ptr %4, i32 0, i32 4
  %6 = load ptr, ptr %5, align 8, !tbaa !52
  %7 = call i32 @ossl_quic_channel_is_terminated(ptr noundef %6)
  %8 = icmp ne i32 %7, 0
  br i1 %8, label %9, label %10

9:                                                ; preds = %1
  store i32 0, ptr %2, align 4
  br label %23

10:                                               ; preds = %1
  %11 = load ptr, ptr %3, align 8, !tbaa !10
  %12 = getelementptr inbounds nuw %struct.quic_tserver_st, ptr %11, i32 0, i32 4
  %13 = load ptr, ptr %12, align 8, !tbaa !52
  %14 = call i32 @ossl_quic_channel_ping(ptr noundef %13)
  %15 = icmp ne i32 %14, 0
  br i1 %15, label %17, label %16

16:                                               ; preds = %10
  store i32 0, ptr %2, align 4
  br label %23

17:                                               ; preds = %10
  %18 = load ptr, ptr %3, align 8, !tbaa !10
  %19 = getelementptr inbounds nuw %struct.quic_tserver_st, ptr %18, i32 0, i32 4
  %20 = load ptr, ptr %19, align 8, !tbaa !52
  %21 = call ptr @ossl_quic_channel_get_reactor(ptr noundef %20)
  %22 = call i32 @ossl_quic_reactor_tick(ptr noundef %21, i32 noundef 0)
  store i32 1, ptr %2, align 4
  br label %23

23:                                               ; preds = %17, %16, %9
  %24 = load i32, ptr %2, align 4
  ret i32 %24
}