; Function Attrs: nounwind uwtable
define range(i32 0, 2) i32 @ossl_quic_tserver_ping(ptr noundef readonly captures(none) %0) local_unnamed_addr #0 {
  %2 = getelementptr inbounds nuw i8, ptr %0, i64 96
  %3 = load ptr, ptr %2, align 8, !tbaa !46
  %4 = tail call i32 @ossl_quic_channel_is_terminated(ptr noundef %3) #6
  %.not = icmp eq i32 %4, 0
  br i1 %.not, label %5, label %12

5:                                                ; preds = %1
  %6 = load ptr, ptr %2, align 8, !tbaa !46
  %7 = tail call i32 @ossl_quic_channel_ping(ptr noundef %6) #6
  %.not3 = icmp eq i32 %7, 0
  br i1 %.not3, label %12, label %8

8:                                                ; preds = %5
  %9 = load ptr, ptr %2, align 8, !tbaa !46
  %10 = tail call ptr @ossl_quic_channel_get_reactor(ptr noundef %9) #6
  %11 = tail call i32 @ossl_quic_reactor_tick(ptr noundef %10, i32 noundef 0) #6
  br label %12

12:                                               ; preds = %5, %1, %8
  %.0 = phi i32 [ 1, %8 ], [ 0, %1 ], [ 0, %5 ]
  ret i32 %.0
}